target datalayout = "e-m:e-p270:32:32-p271:32:32-p272:64:64-i64:64-i128:128-f80:128-n8:16:32:64-S128"
target triple = "x86_64-pc-linux-gnu"

%"class.VrmlTranslator::Token" = type { i32, i32, i32, i32, ptr, ptr }
%"class.VrmlTranslator::Scanner" = type { ptr, ptr, ptr, ptr, i8, i32, i32, i32, i32, %"class.VrmlTranslator::StartStates", %"class.VrmlTranslator::KeywordMap", ptr, ptr, i32, i32, ptr, ptr, i32, i32, i32, i32, i32, ptr }
%"class.VrmlTranslator::StartStates" = type { ptr, ptr }
%"class.VrmlTranslator::KeywordMap" = type { ptr, ptr }

; Function Attrs: mustprogress uwtable
define noundef ptr @_ZN14VrmlTranslator7Scanner4PeekEv(ptr noundef nonnull align 8 dereferenceable(160) %0) #1 align 2 {
  %2 = alloca ptr, align 8
  store ptr %0, ptr %2, align 8
  %3 = load ptr, ptr %2, align 8
  %4 = getelementptr inbounds %"class.VrmlTranslator::Scanner", ptr %3, i32 0, i32 16
  %5 = load ptr, ptr %4, align 8
  %6 = getelementptr inbounds %"class.VrmlTranslator::Token", ptr %5, i32 0, i32 5
  %7 = load ptr, ptr %6, align 8
  %8 = icmp eq ptr %7, null
  br i1 %8, label %9, label %25

9:                                                ; preds = %1
  br label %10

10:                                               ; preds = %16, %9
  %11 = call noundef ptr @_ZN14VrmlTranslator7Scanner9NextTokenEv(ptr noundef nonnull align 8 dereferenceable(160) %3)
  %12 = getelementptr inbounds %"class.VrmlTranslator::Scanner", ptr %3, i32 0, i32 16
  %13 = load ptr, ptr %12, align 8
  %14 = getelementptr inbounds %"class.VrmlTranslator::Token", ptr %13, i32 0, i32 5
  store ptr %11, ptr %14, align 8
  %15 = getelementptr inbounds %"class.VrmlTranslator::Scanner", ptr %3, i32 0, i32 16
  store ptr %11, ptr %15, align 8
  br label %16

16:                                               ; preds = %10
  %17 = getelementptr inbounds %"class.VrmlTranslator::Scanner", ptr %3, i32 0, i32 16
  %18 = load ptr, ptr %17, align 8
  %19 = getelementptr inbounds %"class.VrmlTranslator::Token", ptr %18, i32 0, i32 0
  %20 = load i32, ptr %19, align 8
  %21 = getelementptr inbounds %"class.VrmlTranslator::Scanner", ptr %3, i32 0, i32 7
  %22 = load i32, ptr %21, align 4
  %23 = icmp sgt i32 %20, %22
  br i1 %23, label %10, label %24, !llvm.loop !37

24:                                               ; preds = %16
  br label %41

25:                                               ; preds = %1
  br label %26

26:                                               ; preds = %32, %25
  %27 = getelementptr inbounds %"class.VrmlTranslator::Scanner", ptr %3, i32 0, i32 16
  %28 = load ptr, ptr %27, align 8
  %29 = getelementptr inbounds %"class.VrmlTranslator::Token", ptr %28, i32 0, i32 5
  %30 = load ptr, ptr %29, align 8
  %31 = getelementptr inbounds %"class.VrmlTranslator::Scanner", ptr %3, i32 0, i32 16
  store ptr %30, ptr %31, align 8
  br label %32

32:                                               ; preds = %26
  %33 = getelementptr inbounds %"class.VrmlTranslator::Scanner", ptr %3, i32 0, i32 16
  %34 = load ptr, ptr %33, align 8
  %35 = getelementptr inbounds %"class.VrmlTranslator::Token", ptr %34, i32 0, i32 0
  %36 = load i32, ptr %35, align 8
  %37 = getelementptr inbounds %"class.VrmlTranslator::Scanner", ptr %3, i32 0, i32 7
  %38 = load i32, ptr %37, align 4
  %39 = icmp sgt i32 %36, %38
  br i1 %39, label %26, label %40, !llvm.loop !38

40:                                               ; preds = %32
  br label %41

41:                                               ; preds = %40, %24
  %42 = getelementptr inbounds %"class.VrmlTranslator::Scanner", ptr %3, i32 0, i32 16
  %43 = load ptr, ptr %42, align 8
  ret ptr %43
}