; Function Attrs: mustprogress uwtable
define noundef ptr @_ZN14VrmlTranslator7Scanner4PeekEv(ptr noundef nonnull align 8 dereferenceable(160) %0) local_unnamed_addr #2 align 2 {
  %2 = getelementptr inbounds i8, ptr %0, i64 120
  %3 = load ptr, ptr %2, align 8
  %4 = getelementptr inbounds i8, ptr %3, i64 24
  %5 = load ptr, ptr %4, align 8
  %6 = icmp eq ptr %5, null
  %7 = getelementptr inbounds i8, ptr %0, i64 44
  br i1 %6, label %.preheader, label %.preheader1

.preheader1:                                      ; preds = %1
  %8 = load i32, ptr %7, align 4
  br label %15

.preheader:                                       ; preds = %1, %.preheader
  %9 = tail call noundef ptr @_ZN14VrmlTranslator7Scanner9NextTokenEv(ptr noundef nonnull align 8 dereferenceable(160) %0)
  %10 = load ptr, ptr %2, align 8
  %11 = getelementptr inbounds i8, ptr %10, i64 24
  store ptr %9, ptr %11, align 8
  store ptr %9, ptr %2, align 8
  %12 = load i32, ptr %9, align 8
  %13 = load i32, ptr %7, align 4
  %14 = icmp sgt i32 %12, %13
  br i1 %14, label %.preheader, label %.loopexit, !llvm.loop !31

15:                                               ; preds = %.preheader1, %15
  %16 = phi ptr [ %3, %.preheader1 ], [ %18, %15 ]
  %17 = getelementptr inbounds i8, ptr %16, i64 24
  %18 = load ptr, ptr %17, align 8
  store ptr %18, ptr %2, align 8
  %19 = load i32, ptr %18, align 8
  %20 = icmp sgt i32 %19, %8
  br i1 %20, label %15, label %.loopexit, !llvm.loop !32

.loopexit:                                        ; preds = %15, %.preheader
  %21 = phi ptr [ %9, %.preheader ], [ %18, %15 ]
  ret ptr %21
}